target datalayout = "e-m:e-p270:32:32-p271:32:32-p272:64:64-i64:64-i128:128-f80:128-n8:16:32:64-S128"
target triple = "x86_64-pc-linux-gnu"

%class.btVector3 = type { [4 x float] }
%class.btSoftRigidDynamicsWorld = type <{ %class.btDiscreteDynamicsWorld.base, [4 x i8], %class.btAlignedObjectArray.8, i32, i8, i8, i8, i8, %struct.btSoftBodyWorldInfo, ptr, i8, [7 x i8] }>
%class.btDiscreteDynamicsWorld.base = type <{ %class.btDynamicsWorld, %class.btAlignedObjectArray.0, ptr, ptr, ptr, %class.btAlignedObjectArray.0, %class.btAlignedObjectArray.2, %class.btVector3, float, float, i8, i8, i8, i8, [4 x i8], %class.btAlignedObjectArray.4, i32, i8, [3 x i8], %class.btAlignedObjectArray.6, %class.btSpinMutex }>
%class.btDynamicsWorld = type { %class.btCollisionWorld.base, ptr, ptr, ptr, %struct.btContactSolverInfo }
%class.btCollisionWorld.base = type <{ ptr, %class.btAlignedObjectArray, ptr, %struct.btDispatcherInfo, ptr, ptr, i8 }>
%class.btAlignedObjectArray = type <{ [4 x i8], i32, i32, [4 x i8], ptr, i8, [7 x i8] }>
%struct.btDispatcherInfo = type <{ float, i32, i32, float, i8, [7 x i8], ptr, i8, i8, i8, i8, float, i8, [3 x i8], float, i8, [7 x i8] }>
%struct.btContactSolverInfo = type { %struct.btContactSolverInfoData }
%struct.btContactSolverInfoData = type { float, float, float, float, float, i32, float, float, float, float, float, float, float, float, float, float, i32, float, float, float, float, float, i32, i32, i32, float, float, float, float, i8, i8, i32, i32 }
%class.btAlignedObjectArray.0 = type <{ [4 x i8], i32, i32, [4 x i8], ptr, i8, [7 x i8] }>
%class.btAlignedObjectArray.2 = type <{ [4 x i8], i32, i32, [4 x i8], ptr, i8, [7 x i8] }>
%class.btAlignedObjectArray.4 = type <{ [4 x i8], i32, i32, [4 x i8], ptr, i8, [7 x i8] }>
%class.btAlignedObjectArray.6 = type <{ [4 x i8], i32, i32, [4 x i8], ptr, i8, [7 x i8] }>
%class.btSpinMutex = type { i32 }
%class.btAlignedObjectArray.8 = type <{ [4 x i8], i32, i32, [4 x i8], ptr, i8, [7 x i8] }>
%struct.btSoftBodyWorldInfo = type { float, float, float, float, %class.btVector3, ptr, ptr, %class.btVector3, %struct.btSparseSdf }
%struct.btSparseSdf = type { %class.btAlignedObjectArray.10, float, float, i32, i32, i32, i32, i32, [4 x i8] }
%class.btAlignedObjectArray.10 = type <{ [4 x i8], i32, i32, [4 x i8], ptr, i8, [7 x i8] }>
%class.CProfileSample = type { i8 }

@.str = private unnamed_addr constant [34 x i8] c"predictUnconstraintMotionSoftBody\00", align 1

; Function Attrs: mustprogress uwtable
define dso_local void @_ZN24btSoftRigidDynamicsWorld25predictUnconstraintMotionEf(ptr noundef nonnull align 8 dereferenceable(689) %0, float noundef %1) unnamed_addr #2 align 2 personality ptr @__gxx_personality_v0 {
  %3 = alloca ptr, align 8
  %4 = alloca float, align 4
  %5 = alloca %class.CProfileSample, align 1
  %6 = alloca ptr, align 8
  %7 = alloca i32, align 4
  store ptr %0, ptr %3, align 8, !tbaa !12
  store float %1, ptr %4, align 4, !tbaa !75
  %8 = load ptr, ptr %3, align 8
  %9 = load float, ptr %4, align 4, !tbaa !75
  call void @_ZN23btDiscreteDynamicsWorld25predictUnconstraintMotionEf(ptr noundef nonnull align 8 dereferenceable(508) %8, float noundef %9)
  call void @llvm.lifetime.start.p0(i64 1, ptr %5) #14
  call void @_ZN14CProfileSampleC1EPKc(ptr noundef nonnull align 1 dereferenceable(1) %5, ptr noundef @.str)
  %10 = getelementptr inbounds nuw %class.btSoftRigidDynamicsWorld, ptr %8, i32 0, i32 9
  %11 = load ptr, ptr %10, align 8, !tbaa !26
  %12 = load float, ptr %4, align 4, !tbaa !75
  %13 = load ptr, ptr %11, align 8, !tbaa !24
  %14 = getelementptr inbounds ptr, ptr %13, i64 6
  %15 = load ptr, ptr %14, align 8
  invoke void %15(ptr noundef nonnull align 8 dereferenceable(20) %11, float noundef %12)
          to label %16 unwind label %17

16:                                               ; preds = %2
  call void @_ZN14CProfileSampleD1Ev(ptr noundef nonnull align 1 dereferenceable(1) %5) #14
  call void @llvm.lifetime.end.p0(i64 1, ptr %5) #14
  ret void

17:                                               ; preds = %2
  %18 = landingpad { ptr, i32 }
          cleanup
  %19 = extractvalue { ptr, i32 } %18, 0
  store ptr %19, ptr %6, align 8
  %20 = extractvalue { ptr, i32 } %18, 1
  store i32 %20, ptr %7, align 4
  call void @_ZN14CProfileSampleD1Ev(ptr noundef nonnull align 1 dereferenceable(1) %5) #14
  call void @llvm.lifetime.end.p0(i64 1, ptr %5) #14
  br label %21

21:                                               ; preds = %17
  %22 = load ptr, ptr %6, align 8
  %23 = load i32, ptr %7, align 4
  %24 = insertvalue { ptr, i32 } poison, ptr %22, 0
  %25 = insertvalue { ptr, i32 } %24, i32 %23, 1
  resume { ptr, i32 } %25
}